target datalayout = "e-m:e-p270:32:32-p271:32:32-p272:64:64-i64:64-i128:128-f80:128-n8:16:32:64-S128"
target triple = "x86_64-pc-linux-gnu"

%struct.SDL_Renderer = type { ptr, ptr, ptr, ptr, ptr, ptr, ptr, ptr, ptr, ptr, ptr, ptr, ptr, ptr, ptr, ptr, ptr, ptr, ptr, ptr, ptr, ptr, ptr, ptr, ptr, ptr, ptr, ptr, ptr, ptr, i32, i8, ptr, i8, i8, i8, i64, i64, ptr, %struct.SDL_RenderViewState, %struct.SDL_FPoint, i32, i32, ptr, ptr, ptr, i32, float, float, float, float, %struct.SDL_FColor, i32, i32, i32, ptr, ptr, ptr, ptr, i32, %struct.SDL_FColor, float, %struct.SDL_Rect, %struct.SDL_Rect, i8, i8, i8, i8, ptr, i64, i64, i8, ptr, ptr, i32, ptr, i8, ptr, ptr }
%struct.SDL_RenderViewState = type { i32, i32, %struct.SDL_Rect, %struct.SDL_Rect, %struct.SDL_Rect, %struct.SDL_Rect, i8, %struct.SDL_FPoint, i32, i32, i32, %struct.SDL_FRect, %struct.SDL_FRect, %struct.SDL_FPoint, %struct.SDL_FPoint, %struct.SDL_FPoint }
%struct.SDL_FRect = type { float, float, float, float }
%struct.SDL_FPoint = type { float, float }
%struct.SDL_FColor = type { float, float, float, float }
%struct.SDL_Rect = type { i32, i32, i32, i32 }
%struct.GPU_RenderData = type { ptr, %struct.GPU_Shaders, %struct.GPU_PipelineCache, %struct.anon, %struct.anon.0, %struct.anon.1, %struct.anon.2, [8 x ptr] }
%struct.GPU_Shaders = type { [3 x ptr], [6 x ptr] }
%struct.GPU_PipelineCache = type { ptr }
%struct.anon = type { ptr, i32, i32, i32 }
%struct.anon.0 = type { i32, i32 }
%struct.anon.1 = type { ptr, ptr, i32 }
%struct.anon.2 = type { ptr, ptr, ptr, %struct.SDL_GPUColorTargetInfo, %struct.SDL_GPUViewport, %struct.SDL_Rect, %struct.SDL_FColor, i8, i8 }
%struct.SDL_GPUColorTargetInfo = type { ptr, i32, i32, %struct.SDL_FColor, i32, i32, ptr, i32, i32, i8, i8, i8, i8 }
%struct.SDL_GPUViewport = type { float, float, float, float, float, float }
%struct.SDL_GPUTextureCreateInfo = type { i32, i32, i32, i32, i32, i32, i32, i32, i32 }
%struct.SDL_GPUBlitInfo = type { %struct.SDL_GPUBlitRegion, %struct.SDL_GPUBlitRegion, i32, %struct.SDL_FColor, i32, i32, i8, i8, i8, i8 }
%struct.SDL_GPUBlitRegion = type { ptr, i32, i32, i32, i32, i32, i32 }

@.str.16 = private unnamed_addr constant [40 x i8] c"Failed to acquire swapchain texture: %s\00", align 1

; Function Attrs: nounwind uwtable
define internal zeroext i1 @CreateBackbuffer(ptr noundef %0, i32 noundef %1, i32 noundef %2, i32 noundef %3) #0 {
  %5 = alloca i1, align 1
  %6 = alloca ptr, align 8
  %7 = alloca i32, align 4
  %8 = alloca i32, align 4
  %9 = alloca i32, align 4
  %10 = alloca %struct.SDL_GPUTextureCreateInfo, align 4
  %11 = alloca i32, align 4
  store ptr %0, ptr %6, align 8
  store i32 %1, ptr %7, align 4
  store i32 %2, ptr %8, align 4
  store i32 %3, ptr %9, align 4
  call void @llvm.lifetime.start.p0(i64 36, ptr %10) #10
  call void @llvm.memset.p0.i64(ptr align 4 %10, i8 0, i64 36, i1 false)
  %12 = load i32, ptr %7, align 4
  %13 = getelementptr inbounds nuw %struct.SDL_GPUTextureCreateInfo, ptr %10, i32 0, i32 3
  store i32 %12, ptr %13, align 4
  %14 = load i32, ptr %8, align 4
  %15 = getelementptr inbounds nuw %struct.SDL_GPUTextureCreateInfo, ptr %10, i32 0, i32 4
  store i32 %14, ptr %15, align 4
  %16 = load i32, ptr %9, align 4
  %17 = getelementptr inbounds nuw %struct.SDL_GPUTextureCreateInfo, ptr %10, i32 0, i32 1
  store i32 %16, ptr %17, align 4
  %18 = getelementptr inbounds nuw %struct.SDL_GPUTextureCreateInfo, ptr %10, i32 0, i32 5
  store i32 1, ptr %18, align 4
  %19 = getelementptr inbounds nuw %struct.SDL_GPUTextureCreateInfo, ptr %10, i32 0, i32 6
  store i32 1, ptr %19, align 4
  %20 = getelementptr inbounds nuw %struct.SDL_GPUTextureCreateInfo, ptr %10, i32 0, i32 7
  store i32 0, ptr %20, align 4
  %21 = getelementptr inbounds nuw %struct.SDL_GPUTextureCreateInfo, ptr %10, i32 0, i32 2
  store i32 3, ptr %21, align 4
  %22 = load ptr, ptr %6, align 8
  %23 = getelementptr inbounds nuw %struct.GPU_RenderData, ptr %22, i32 0, i32 0
  %24 = load ptr, ptr %23, align 8
  %25 = call ptr @SDL_CreateGPUTexture_REAL(ptr noundef %24, ptr noundef %10)
  %26 = load ptr, ptr %6, align 8
  %27 = getelementptr inbounds nuw %struct.GPU_RenderData, ptr %26, i32 0, i32 3
  %28 = getelementptr inbounds nuw %struct.anon, ptr %27, i32 0, i32 0
  store ptr %25, ptr %28, align 8
  %29 = load i32, ptr %7, align 4
  %30 = load ptr, ptr %6, align 8
  %31 = getelementptr inbounds nuw %struct.GPU_RenderData, ptr %30, i32 0, i32 3
  %32 = getelementptr inbounds nuw %struct.anon, ptr %31, i32 0, i32 2
  store i32 %29, ptr %32, align 4
  %33 = load i32, ptr %8, align 4
  %34 = load ptr, ptr %6, align 8
  %35 = getelementptr inbounds nuw %struct.GPU_RenderData, ptr %34, i32 0, i32 3
  %36 = getelementptr inbounds nuw %struct.anon, ptr %35, i32 0, i32 3
  store i32 %33, ptr %36, align 8
  %37 = load i32, ptr %9, align 4
  %38 = load ptr, ptr %6, align 8
  %39 = getelementptr inbounds nuw %struct.GPU_RenderData, ptr %38, i32 0, i32 3
  %40 = getelementptr inbounds nuw %struct.anon, ptr %39, i32 0, i32 1
  store i32 %37, ptr %40, align 8
  %41 = load ptr, ptr %6, align 8
  %42 = getelementptr inbounds nuw %struct.GPU_RenderData, ptr %41, i32 0, i32 3
  %43 = getelementptr inbounds nuw %struct.anon, ptr %42, i32 0, i32 0
  %44 = load ptr, ptr %43, align 8
  %45 = icmp ne ptr %44, null
  br i1 %45, label %47, label %46

46:                                               ; preds = %4
  store i1 false, ptr %5, align 1
  store i32 1, ptr %11, align 4
  br label %48

47:                                               ; preds = %4
  store i1 true, ptr %5, align 1
  store i32 1, ptr %11, align 4
  br label %48

48:                                               ; preds = %47, %46
  call void @llvm.lifetime.end.p0(i64 36, ptr %10) #10
  %49 = load i1, ptr %5, align 1
  ret i1 %49
}

; Function Attrs: nounwind uwtable
define internal zeroext i1 @GPU_RenderPresent(ptr noundef %0) #0 {
  %2 = alloca ptr, align 8
  %3 = alloca ptr, align 8
  %4 = alloca ptr, align 8
  %5 = alloca i32, align 4
  %6 = alloca i32, align 4
  %7 = alloca i8, align 1
  %8 = alloca %struct.SDL_GPUBlitInfo, align 8
  store ptr %0, ptr %2, align 8
  call void @llvm.lifetime.start.p0(i64 8, ptr %3) #10
  %9 = load ptr, ptr %2, align 8
  %10 = getelementptr inbounds nuw %struct.SDL_Renderer, ptr %9, i32 0, i32 77
  %11 = load ptr, ptr %10, align 8
  store ptr %11, ptr %3, align 8
  call void @llvm.lifetime.start.p0(i64 8, ptr %4) #10
  call void @llvm.lifetime.start.p0(i64 4, ptr %5) #10
  call void @llvm.lifetime.start.p0(i64 4, ptr %6) #10
  call void @llvm.lifetime.start.p0(i64 1, ptr %7) #10
  %12 = load ptr, ptr %3, align 8
  %13 = getelementptr inbounds nuw %struct.GPU_RenderData, ptr %12, i32 0, i32 6
  %14 = getelementptr inbounds nuw %struct.anon.2, ptr %13, i32 0, i32 2
  %15 = load ptr, ptr %14, align 8
  %16 = load ptr, ptr %2, align 8
  %17 = getelementptr inbounds nuw %struct.SDL_Renderer, ptr %16, i32 0, i32 32
  %18 = load ptr, ptr %17, align 8
  %19 = call zeroext i1 @SDL_WaitAndAcquireGPUSwapchainTexture_REAL(ptr noundef %15, ptr noundef %18, ptr noundef %4, ptr noundef %5, ptr noundef %6)
  %20 = zext i1 %19 to i8
  store i8 %20, ptr %7, align 1
  %21 = load i8, ptr %7, align 1, !range !3, !noundef !4
  %22 = trunc i8 %21 to i1
  br i1 %22, label %25, label %23

23:                                               ; preds = %1
  %24 = call ptr @SDL_GetError_REAL()
  call void (i32, ptr, ...) @SDL_LogError_REAL(i32 noundef 6, ptr noundef @.str.16, ptr noundef %24)
  br label %25

25:                                               ; preds = %23, %1
  %26 = load ptr, ptr %4, align 8
  %27 = icmp ne ptr %26, null
  br i1 %27, label %28, label %100

28:                                               ; preds = %25
  call void @llvm.lifetime.start.p0(i64 96, ptr %8) #10
  call void @llvm.memset.p0.i64(ptr align 8 %8, i8 0, i64 96, i1 false)
  %29 = load ptr, ptr %3, align 8
  %30 = getelementptr inbounds nuw %struct.GPU_RenderData, ptr %29, i32 0, i32 3
  %31 = getelementptr inbounds nuw %struct.anon, ptr %30, i32 0, i32 0
  %32 = load ptr, ptr %31, align 8
  %33 = getelementptr inbounds nuw %struct.SDL_GPUBlitInfo, ptr %8, i32 0, i32 0
  %34 = getelementptr inbounds nuw %struct.SDL_GPUBlitRegion, ptr %33, i32 0, i32 0
  store ptr %32, ptr %34, align 8
  %35 = load ptr, ptr %3, align 8
  %36 = getelementptr inbounds nuw %struct.GPU_RenderData, ptr %35, i32 0, i32 3
  %37 = getelementptr inbounds nuw %struct.anon, ptr %36, i32 0, i32 2
  %38 = load i32, ptr %37, align 4
  %39 = getelementptr inbounds nuw %struct.SDL_GPUBlitInfo, ptr %8, i32 0, i32 0
  %40 = getelementptr inbounds nuw %struct.SDL_GPUBlitRegion, ptr %39, i32 0, i32 5
  store i32 %38, ptr %40, align 8
  %41 = load ptr, ptr %3, align 8
  %42 = getelementptr inbounds nuw %struct.GPU_RenderData, ptr %41, i32 0, i32 3
  %43 = getelementptr inbounds nuw %struct.anon, ptr %42, i32 0, i32 3
  %44 = load i32, ptr %43, align 8
  %45 = getelementptr inbounds nuw %struct.SDL_GPUBlitInfo, ptr %8, i32 0, i32 0
  %46 = getelementptr inbounds nuw %struct.SDL_GPUBlitRegion, ptr %45, i32 0, i32 6
  store i32 %44, ptr %46, align 4
  %47 = load ptr, ptr %4, align 8
  %48 = getelementptr inbounds nuw %struct.SDL_GPUBlitInfo, ptr %8, i32 0, i32 1
  %49 = getelementptr inbounds nuw %struct.SDL_GPUBlitRegion, ptr %48, i32 0, i32 0
  store ptr %47, ptr %49, align 8
  %50 = load i32, ptr %5, align 4
  %51 = getelementptr inbounds nuw %struct.SDL_GPUBlitInfo, ptr %8, i32 0, i32 1
  %52 = getelementptr inbounds nuw %struct.SDL_GPUBlitRegion, ptr %51, i32 0, i32 5
  store i32 %50, ptr %52, align 8
  %53 = load i32, ptr %6, align 4
  %54 = getelementptr inbounds nuw %struct.SDL_GPUBlitInfo, ptr %8, i32 0, i32 1
  %55 = getelementptr inbounds nuw %struct.SDL_GPUBlitRegion, ptr %54, i32 0, i32 6
  store i32 %53, ptr %55, align 4
  %56 = getelementptr inbounds nuw %struct.SDL_GPUBlitInfo, ptr %8, i32 0, i32 2
  store i32 2, ptr %56, align 8
  %57 = getelementptr inbounds nuw %struct.SDL_GPUBlitInfo, ptr %8, i32 0, i32 5
  store i32 1, ptr %57, align 8
  %58 = load ptr, ptr %3, align 8
  %59 = getelementptr inbounds nuw %struct.GPU_RenderData, ptr %58, i32 0, i32 6
  %60 = getelementptr inbounds nuw %struct.anon.2, ptr %59, i32 0, i32 2
  %61 = load ptr, ptr %60, align 8
  call void @SDL_BlitGPUTexture_REAL(ptr noundef %61, ptr noundef %8)
  %62 = load ptr, ptr %3, align 8
  %63 = getelementptr inbounds nuw %struct.GPU_RenderData, ptr %62, i32 0, i32 6
  %64 = getelementptr inbounds nuw %struct.anon.2, ptr %63, i32 0, i32 2
  %65 = load ptr, ptr %64, align 8
  %66 = call zeroext i1 @SDL_SubmitGPUCommandBuffer_REAL(ptr noundef %65)
  %67 = load i32, ptr %5, align 4
  %68 = load ptr, ptr %3, align 8
  %69 = getelementptr inbounds nuw %struct.GPU_RenderData, ptr %68, i32 0, i32 3
  %70 = getelementptr inbounds nuw %struct.anon, ptr %69, i32 0, i32 2
  %71 = load i32, ptr %70, align 4
  %72 = icmp ne i32 %67, %71
  br i1 %72, label %80, label %73

73:                                               ; preds = %28
  %74 = load i32, ptr %6, align 4
  %75 = load ptr, ptr %3, align 8
  %76 = getelementptr inbounds nuw %struct.GPU_RenderData, ptr %75, i32 0, i32 3
  %77 = getelementptr inbounds nuw %struct.anon, ptr %76, i32 0, i32 3
  %78 = load i32, ptr %77, align 8
  %79 = icmp ne i32 %74, %78
  br i1 %79, label %80, label %99

80:                                               ; preds = %73, %28
  %81 = load ptr, ptr %3, align 8
  %82 = getelementptr inbounds nuw %struct.GPU_RenderData, ptr %81, i32 0, i32 0
  %83 = load ptr, ptr %82, align 8
  %84 = load ptr, ptr %3, align 8
  %85 = getelementptr inbounds nuw %struct.GPU_RenderData, ptr %84, i32 0, i32 3
  %86 = getelementptr inbounds nuw %struct.anon, ptr %85, i32 0, i32 0
  %87 = load ptr, ptr %86, align 8
  call void @SDL_ReleaseGPUTexture_REAL(ptr noundef %83, ptr noundef %87)
  %88 = load ptr, ptr %3, align 8
  %89 = load i32, ptr %5, align 4
  %90 = load i32, ptr %6, align 4
  %91 = load ptr, ptr %3, align 8
  %92 = getelementptr inbounds nuw %struct.GPU_RenderData, ptr %91, i32 0, i32 0
  %93 = load ptr, ptr %92, align 8
  %94 = load ptr, ptr %2, align 8
  %95 = getelementptr inbounds nuw %struct.SDL_Renderer, ptr %94, i32 0, i32 32
  %96 = load ptr, ptr %95, align 8
  %97 = call i32 @SDL_GetGPUSwapchainTextureFormat_REAL(ptr noundef %93, ptr noundef %96)
  %98 = call zeroext i1 @CreateBackbuffer(ptr noundef %88, i32 noundef %89, i32 noundef %90, i32 noundef %97)
  br label %99

99:                                               ; preds = %80, %73
  call void @llvm.lifetime.end.p0(i64 96, ptr %8) #10
  br label %106

100:                                              ; preds = %25
  %101 = load ptr, ptr %3, align 8
  %102 = getelementptr inbounds nuw %struct.GPU_RenderData, ptr %101, i32 0, i32 6
  %103 = getelementptr inbounds nuw %struct.anon.2, ptr %102, i32 0, i32 2
  %104 = load ptr, ptr %103, align 8
  %105 = call zeroext i1 @SDL_SubmitGPUCommandBuffer_REAL(ptr noundef %104)
  br label %106

106:                                              ; preds = %100, %99
  %107 = load ptr, ptr %3, align 8
  %108 = getelementptr inbounds nuw %struct.GPU_RenderData, ptr %107, i32 0, i32 0
  %109 = load ptr, ptr %108, align 8
  %110 = call ptr @SDL_AcquireGPUCommandBuffer_REAL(ptr noundef %109)
  %111 = load ptr, ptr %3, align 8
  %112 = getelementptr inbounds nuw %struct.GPU_RenderData, ptr %111, i32 0, i32 6
  %113 = getelementptr inbounds nuw %struct.anon.2, ptr %112, i32 0, i32 2
  store ptr %110, ptr %113, align 8
  call void @llvm.lifetime.end.p0(i64 1, ptr %7) #10
  call void @llvm.lifetime.end.p0(i64 4, ptr %6) #10
  call void @llvm.lifetime.end.p0(i64 4, ptr %5) #10
  call void @llvm.lifetime.end.p0(i64 8, ptr %4) #10
  call void @llvm.lifetime.end.p0(i64 8, ptr %3) #10
  ret i1 true
}