; Function Attrs: nounwind uwtable
define internal noundef zeroext i1 @GPU_RenderPresent(ptr noundef readonly captures(none) %0) #0 {
  %2 = alloca %struct.SDL_GPUTextureCreateInfo, align 4
  %3 = alloca ptr, align 8
  %4 = alloca i32, align 4
  %5 = alloca i32, align 4
  %6 = alloca %struct.SDL_GPUBlitInfo, align 8
  %7 = getelementptr inbounds nuw i8, ptr %0, i64 696
  %8 = load ptr, ptr %7, align 8
  call void @llvm.lifetime.start.p0(i64 8, ptr nonnull %3) #11
  call void @llvm.lifetime.start.p0(i64 4, ptr nonnull %4) #11
  call void @llvm.lifetime.start.p0(i64 4, ptr nonnull %5) #11
  %9 = getelementptr inbounds nuw i8, ptr %8, i64 160
  %10 = load ptr, ptr %9, align 8
  %11 = getelementptr inbounds nuw i8, ptr %0, i64 248
  %12 = load ptr, ptr %11, align 8
  %13 = call zeroext i1 @SDL_WaitAndAcquireGPUSwapchainTexture_REAL(ptr noundef %10, ptr noundef %12, ptr noundef nonnull %3, ptr noundef nonnull %4, ptr noundef nonnull %5) #11
  br i1 %13, label %16, label %14

14:                                               ; preds = %1
  %15 = call ptr @SDL_GetError_REAL() #11
  call void (i32, ptr, ...) @SDL_LogError_REAL(i32 noundef 6, ptr noundef nonnull @.str.16, ptr noundef %15) #11
  br label %16

16:                                               ; preds = %14, %1
  %17 = load ptr, ptr %3, align 8
  %.not = icmp eq ptr %17, null
  br i1 %.not, label %61, label %18

18:                                               ; preds = %16
  call void @llvm.lifetime.start.p0(i64 96, ptr nonnull %6) #11
  %19 = getelementptr inbounds nuw i8, ptr %6, i64 8
  call void @llvm.memset.p0.i64(ptr noundef nonnull align 8 dereferenceable(88) %19, i8 0, i64 88, i1 false)
  %20 = getelementptr inbounds nuw i8, ptr %8, i64 88
  %21 = load ptr, ptr %20, align 8
  store ptr %21, ptr %6, align 8
  %22 = getelementptr inbounds nuw i8, ptr %8, i64 100
  %23 = load i32, ptr %22, align 4
  %24 = getelementptr inbounds nuw i8, ptr %6, i64 24
  store i32 %23, ptr %24, align 8
  %25 = getelementptr inbounds nuw i8, ptr %8, i64 104
  %26 = load i32, ptr %25, align 8
  %27 = getelementptr inbounds nuw i8, ptr %6, i64 28
  store i32 %26, ptr %27, align 4
  %28 = getelementptr inbounds nuw i8, ptr %6, i64 32
  store ptr %17, ptr %28, align 8
  %29 = load i32, ptr %4, align 4
  %30 = getelementptr inbounds nuw i8, ptr %6, i64 56
  store i32 %29, ptr %30, align 8
  %31 = load i32, ptr %5, align 4
  %32 = getelementptr inbounds nuw i8, ptr %6, i64 60
  store i32 %31, ptr %32, align 4
  %33 = getelementptr inbounds nuw i8, ptr %6, i64 64
  store i32 2, ptr %33, align 8
  %34 = getelementptr inbounds nuw i8, ptr %6, i64 88
  store i32 1, ptr %34, align 8
  %35 = load ptr, ptr %9, align 8
  call void @SDL_BlitGPUTexture_REAL(ptr noundef %35, ptr noundef nonnull %6) #11
  %36 = load ptr, ptr %9, align 8
  %37 = call zeroext i1 @SDL_SubmitGPUCommandBuffer_REAL(ptr noundef %36) #11
  %38 = load i32, ptr %4, align 4
  %39 = load i32, ptr %22, align 4
  %.not18 = icmp eq i32 %38, %39
  br i1 %.not18, label %40, label %43

40:                                               ; preds = %18
  %41 = load i32, ptr %5, align 4
  %42 = load i32, ptr %25, align 8
  %.not19 = icmp eq i32 %41, %42
  br i1 %.not19, label %60, label %43

43:                                               ; preds = %40, %18
  %44 = load ptr, ptr %8, align 8
  %45 = load ptr, ptr %20, align 8
  call void @SDL_ReleaseGPUTexture_REAL(ptr noundef %44, ptr noundef %45) #11
  %46 = load i32, ptr %4, align 4
  %47 = load i32, ptr %5, align 4
  %48 = load ptr, ptr %8, align 8
  %49 = load ptr, ptr %11, align 8
  %50 = call i32 @SDL_GetGPUSwapchainTextureFormat_REAL(ptr noundef %48, ptr noundef %49) #11
  call void @llvm.lifetime.start.p0(i64 36, ptr nonnull %2) #11
  call void @llvm.memset.p0.i64(ptr noundef nonnull align 4 dereferenceable(36) %2, i8 0, i64 36, i1 false)
  %51 = getelementptr inbounds nuw i8, ptr %2, i64 12
  store i32 %46, ptr %51, align 4
  %52 = getelementptr inbounds nuw i8, ptr %2, i64 16
  store i32 %47, ptr %52, align 4
  %53 = getelementptr inbounds nuw i8, ptr %2, i64 4
  store i32 %50, ptr %53, align 4
  %54 = getelementptr inbounds nuw i8, ptr %2, i64 20
  store i32 1, ptr %54, align 4
  %55 = getelementptr inbounds nuw i8, ptr %2, i64 24
  store i32 1, ptr %55, align 4
  %56 = getelementptr inbounds nuw i8, ptr %2, i64 8
  store i32 3, ptr %56, align 4
  %57 = load ptr, ptr %8, align 8
  %58 = call ptr @SDL_CreateGPUTexture_REAL(ptr noundef %57, ptr noundef nonnull %2) #11
  store ptr %58, ptr %20, align 8
  store i32 %46, ptr %22, align 4
  store i32 %47, ptr %25, align 8
  %59 = getelementptr inbounds nuw i8, ptr %8, i64 96
  store i32 %50, ptr %59, align 8
  call void @llvm.lifetime.end.p0(i64 36, ptr nonnull %2) #11
  br label %60

60:                                               ; preds = %43, %40
  call void @llvm.lifetime.end.p0(i64 96, ptr nonnull %6) #11
  br label %64

61:                                               ; preds = %16
  %62 = load ptr, ptr %9, align 8
  %63 = call zeroext i1 @SDL_SubmitGPUCommandBuffer_REAL(ptr noundef %62) #11
  br label %64

64:                                               ; preds = %61, %60
  %65 = load ptr, ptr %8, align 8
  %66 = call ptr @SDL_AcquireGPUCommandBuffer_REAL(ptr noundef %65) #11
  store ptr %66, ptr %9, align 8
  call void @llvm.lifetime.end.p0(i64 4, ptr nonnull %5) #11
  call void @llvm.lifetime.end.p0(i64 4, ptr nonnull %4) #11
  call void @llvm.lifetime.end.p0(i64 8, ptr nonnull %3) #11
  ret i1 true
}